target datalayout = "e-m:e-p270:32:32-p271:32:32-p272:64:64-i64:64-i128:128-f80:128-n8:16:32:64-S128"
target triple = "x86_64-pc-linux-gnu"

; Function Attrs: nounwind uwtable
define dso_local void @popup_all_node(ptr noundef %0, ptr noundef %1, i32 noundef %2) #0 {
  %4 = alloca ptr, align 8
  %5 = alloca ptr, align 8
  %6 = alloca i32, align 4
  %7 = alloca ptr, align 8
  %8 = alloca ptr, align 8
  store ptr %0, ptr %4, align 8
  store ptr %1, ptr %5, align 8
  store i32 %2, ptr %6, align 4
  call void @llvm.lifetime.start.p0(i64 8, ptr %7) #7
  store ptr null, ptr %7, align 8
  call void @llvm.lifetime.start.p0(i64 8, ptr %8) #7
  store ptr null, ptr %8, align 8
  %9 = load ptr, ptr %4, align 8
  %10 = load ptr, ptr %5, align 8
  call void (ptr, ptr, ...) @gtk_tree_model_get(ptr noundef %9, ptr noundef %10, i32 noundef 21, ptr noundef %7, i32 noundef -1)
  %11 = load ptr, ptr %4, align 8
  %12 = load ptr, ptr %5, align 8
  call void (ptr, ptr, ...) @gtk_tree_model_get(ptr noundef %11, ptr noundef %12, i32 noundef 8, ptr noundef %8, i32 noundef -1)
  %13 = load ptr, ptr %7, align 8
  %14 = load i32, ptr %6, align 4
  %15 = load ptr, ptr %8, align 8
  call void @popup_all_node_name(ptr noundef %13, i32 noundef %14, ptr noundef %15)
  %16 = load ptr, ptr %7, align 8
  call void @g_free(ptr noundef %16)
  %17 = load ptr, ptr %8, align 8
  call void @g_free(ptr noundef %17)
  call void @llvm.lifetime.end.p0(i64 8, ptr %8) #7
  call void @llvm.lifetime.end.p0(i64 8, ptr %7) #7
  ret void
}