; Function Attrs: nounwind uwtable
define dso_local void @popup_all_node(ptr noundef %0, ptr noundef %1, i32 noundef %2) local_unnamed_addr #0 {
  %4 = alloca ptr, align 8
  %5 = alloca ptr, align 8
  call void @llvm.lifetime.start.p0(i64 8, ptr nonnull %4) #11
  store ptr null, ptr %4, align 8
  call void @llvm.lifetime.start.p0(i64 8, ptr nonnull %5) #11
  store ptr null, ptr %5, align 8
  call void (ptr, ptr, ...) @gtk_tree_model_get(ptr noundef %0, ptr noundef %1, i32 noundef 21, ptr noundef nonnull %4, i32 noundef -1) #11
  call void (ptr, ptr, ...) @gtk_tree_model_get(ptr noundef %0, ptr noundef %1, i32 noundef 8, ptr noundef nonnull %5, i32 noundef -1) #11
  %6 = load ptr, ptr %4, align 8
  %7 = load ptr, ptr %5, align 8
  call void @popup_all_node_name(ptr noundef %6, i32 noundef %2, ptr noundef %7)
  %8 = load ptr, ptr %4, align 8
  call void @g_free(ptr noundef %8) #11
  %9 = load ptr, ptr %5, align 8
  call void @g_free(ptr noundef %9) #11
  call void @llvm.lifetime.end.p0(i64 8, ptr nonnull %5) #11
  call void @llvm.lifetime.end.p0(i64 8, ptr nonnull %4) #11
  ret void
}